target datalayout = "e-m:e-p270:32:32-p271:32:32-p272:64:64-i64:64-i128:128-f80:128-n8:16:32:64-S128"
target triple = "x86_64-pc-linux-gnu"

%struct.X509_algor_st = type { ptr, ptr }
%struct.asn1_string_st = type { i32, i32, ptr, i64 }

@.str = private unnamed_addr constant [34 x i8] c"../openssl/crypto/asn1/a_verify.c\00", align 1
@__func__.ASN1_verify = private unnamed_addr constant [12 x i8] c"ASN1_verify\00", align 1

; Function Attrs: nounwind uwtable
define i32 @ASN1_verify(ptr noundef %0, ptr noundef %1, ptr noundef %2, ptr noundef %3, ptr noundef %4) #0 {
  %6 = alloca ptr, align 8
  %7 = alloca ptr, align 8
  %8 = alloca ptr, align 8
  %9 = alloca ptr, align 8
  %10 = alloca ptr, align 8
  %11 = alloca ptr, align 8
  %12 = alloca ptr, align 8
  %13 = alloca ptr, align 8
  %14 = alloca ptr, align 8
  %15 = alloca i32, align 4
  %16 = alloca i32, align 4
  %17 = alloca i32, align 4
  store ptr %0, ptr %6, align 8, !tbaa !3
  store ptr %1, ptr %7, align 8, !tbaa !7
  store ptr %2, ptr %8, align 8, !tbaa !9
  store ptr %3, ptr %9, align 8, !tbaa !11
  store ptr %4, ptr %10, align 8, !tbaa !13
  call void @llvm.lifetime.start.p0(i64 8, ptr %11) #3
  %18 = call ptr @EVP_MD_CTX_new()
  store ptr %18, ptr %11, align 8, !tbaa !15
  call void @llvm.lifetime.start.p0(i64 8, ptr %12) #3
  call void @llvm.lifetime.start.p0(i64 8, ptr %13) #3
  call void @llvm.lifetime.start.p0(i64 8, ptr %14) #3
  store ptr null, ptr %14, align 8, !tbaa !11
  call void @llvm.lifetime.start.p0(i64 4, ptr %15) #3
  store i32 -1, ptr %15, align 4, !tbaa !17
  call void @llvm.lifetime.start.p0(i64 4, ptr %16) #3
  call void @llvm.lifetime.start.p0(i64 4, ptr %17) #3
  %19 = load ptr, ptr %11, align 8, !tbaa !15
  %20 = icmp eq ptr %19, null
  br i1 %20, label %21, label %22

21:                                               ; preds = %5
  call void @ERR_new()
  call void @ERR_set_debug(ptr noundef @.str, i32 noundef 36, ptr noundef @__func__.ASN1_verify)
  call void (i32, i32, ptr, ...) @ERR_set_error(i32 noundef 13, i32 noundef 524294, ptr noundef null)
  br label %97

22:                                               ; preds = %5
  %23 = load ptr, ptr %7, align 8, !tbaa !7
  %24 = getelementptr inbounds nuw %struct.X509_algor_st, ptr %23, i32 0, i32 0
  %25 = load ptr, ptr %24, align 8, !tbaa !19
  %26 = call i32 @OBJ_obj2nid(ptr noundef %25)
  store i32 %26, ptr %16, align 4, !tbaa !17
  %27 = load i32, ptr %16, align 4, !tbaa !17
  %28 = call ptr @OBJ_nid2sn(i32 noundef %27)
  %29 = call ptr @EVP_get_digestbyname(ptr noundef %28)
  store ptr %29, ptr %12, align 8, !tbaa !23
  %30 = load ptr, ptr %12, align 8, !tbaa !23
  %31 = icmp eq ptr %30, null
  br i1 %31, label %32, label %33

32:                                               ; preds = %22
  call void @ERR_new()
  call void @ERR_set_debug(ptr noundef @.str, i32 noundef 42, ptr noundef @__func__.ASN1_verify)
  call void (i32, i32, ptr, ...) @ERR_set_error(i32 noundef 13, i32 noundef 161, ptr noundef null)
  br label %97

33:                                               ; preds = %22
  %34 = load ptr, ptr %8, align 8, !tbaa !9
  %35 = getelementptr inbounds nuw %struct.asn1_string_st, ptr %34, i32 0, i32 1
  %36 = load i32, ptr %35, align 4, !tbaa !25
  %37 = icmp eq i32 %36, 3
  br i1 %37, label %38, label %45

38:                                               ; preds = %33
  %39 = load ptr, ptr %8, align 8, !tbaa !9
  %40 = getelementptr inbounds nuw %struct.asn1_string_st, ptr %39, i32 0, i32 3
  %41 = load i64, ptr %40, align 8, !tbaa !28
  %42 = and i64 %41, 7
  %43 = icmp ne i64 %42, 0
  br i1 %43, label %44, label %45

44:                                               ; preds = %38
  call void @ERR_new()
  call void @ERR_set_debug(ptr noundef @.str, i32 noundef 47, ptr noundef @__func__.ASN1_verify)
  call void (i32, i32, ptr, ...) @ERR_set_error(i32 noundef 13, i32 noundef 220, ptr noundef null)
  br label %97

45:                                               ; preds = %38, %33
  %46 = load ptr, ptr %6, align 8, !tbaa !3
  %47 = load ptr, ptr %9, align 8, !tbaa !11
  %48 = call i32 %46(ptr noundef %47, ptr noundef null)
  store i32 %48, ptr %17, align 4, !tbaa !17
  %49 = load i32, ptr %17, align 4, !tbaa !17
  %50 = icmp sle i32 %49, 0
  br i1 %50, label %51, label %52

51:                                               ; preds = %45
  call void @ERR_new()
  call void @ERR_set_debug(ptr noundef @.str, i32 noundef 53, ptr noundef @__func__.ASN1_verify)
  call void (i32, i32, ptr, ...) @ERR_set_error(i32 noundef 13, i32 noundef 786691, ptr noundef null)
  br label %97

52:                                               ; preds = %45
  %53 = load i32, ptr %17, align 4, !tbaa !17
  %54 = zext i32 %53 to i64
  %55 = call noalias ptr @CRYPTO_malloc(i64 noundef %54, ptr noundef @.str, i32 noundef 56)
  store ptr %55, ptr %14, align 8, !tbaa !11
  %56 = load ptr, ptr %14, align 8, !tbaa !11
  %57 = icmp eq ptr %56, null
  br i1 %57, label %58, label %59

58:                                               ; preds = %52
  br label %97

59:                                               ; preds = %52
  %60 = load ptr, ptr %14, align 8, !tbaa !11
  store ptr %60, ptr %13, align 8, !tbaa !11
  %61 = load ptr, ptr %6, align 8, !tbaa !3
  %62 = load ptr, ptr %9, align 8, !tbaa !11
  %63 = call i32 %61(ptr noundef %62, ptr noundef %13)
  %64 = load ptr, ptr %11, align 8, !tbaa !15
  %65 = load ptr, ptr %12, align 8, !tbaa !23
  %66 = call i32 @EVP_DigestInit_ex(ptr noundef %64, ptr noundef %65, ptr noundef null)
  %67 = icmp ne i32 %66, 0
  br i1 %67, label %68, label %75

68:                                               ; preds = %59
  %69 = load ptr, ptr %11, align 8, !tbaa !15
  %70 = load ptr, ptr %14, align 8, !tbaa !11
  %71 = load i32, ptr %17, align 4, !tbaa !17
  %72 = sext i32 %71 to i64
  %73 = call i32 @EVP_DigestUpdate(ptr noundef %69, ptr noundef %70, i64 noundef %72)
  %74 = icmp ne i32 %73, 0
  br label %75

75:                                               ; preds = %68, %59
  %76 = phi i1 [ false, %59 ], [ %74, %68 ]
  %77 = zext i1 %76 to i32
  store i32 %77, ptr %15, align 4, !tbaa !17
  %78 = load ptr, ptr %14, align 8, !tbaa !11
  %79 = load i32, ptr %17, align 4, !tbaa !17
  %80 = zext i32 %79 to i64
  call void @CRYPTO_clear_free(ptr noundef %78, i64 noundef %80, ptr noundef @.str, i32 noundef 65)
  %81 = load i32, ptr %15, align 4, !tbaa !17
  %82 = icmp ne i32 %81, 0
  br i1 %82, label %84, label %83

83:                                               ; preds = %75
  call void @ERR_new()
  call void @ERR_set_debug(ptr noundef @.str, i32 noundef 68, ptr noundef @__func__.ASN1_verify)
  call void (i32, i32, ptr, ...) @ERR_set_error(i32 noundef 13, i32 noundef 524294, ptr noundef null)
  br label %97

84:                                               ; preds = %75
  store i32 -1, ptr %15, align 4, !tbaa !17
  %85 = load ptr, ptr %11, align 8, !tbaa !15
  %86 = load ptr, ptr %8, align 8, !tbaa !9
  %87 = getelementptr inbounds nuw %struct.asn1_string_st, ptr %86, i32 0, i32 2
  %88 = load ptr, ptr %87, align 8, !tbaa !29
  %89 = load ptr, ptr %8, align 8, !tbaa !9
  %90 = getelementptr inbounds nuw %struct.asn1_string_st, ptr %89, i32 0, i32 0
  %91 = load i32, ptr %90, align 8, !tbaa !30
  %92 = load ptr, ptr %10, align 8, !tbaa !13
  %93 = call i32 @EVP_VerifyFinal(ptr noundef %85, ptr noundef %88, i32 noundef %91, ptr noundef %92)
  %94 = icmp sle i32 %93, 0
  br i1 %94, label %95, label %96

95:                                               ; preds = %84
  call void @ERR_new()
  call void @ERR_set_debug(ptr noundef @.str, i32 noundef 75, ptr noundef @__func__.ASN1_verify)
  call void (i32, i32, ptr, ...) @ERR_set_error(i32 noundef 13, i32 noundef 524294, ptr noundef null)
  store i32 0, ptr %15, align 4, !tbaa !17
  br label %97

96:                                               ; preds = %84
  store i32 1, ptr %15, align 4, !tbaa !17
  br label %97

97:                                               ; preds = %96, %95, %83, %58, %51, %44, %32, %21
  %98 = load ptr, ptr %11, align 8, !tbaa !15
  call void @EVP_MD_CTX_free(ptr noundef %98)
  %99 = load i32, ptr %15, align 4, !tbaa !17
  call void @llvm.lifetime.end.p0(i64 4, ptr %17) #3
  call void @llvm.lifetime.end.p0(i64 4, ptr %16) #3
  call void @llvm.lifetime.end.p0(i64 4, ptr %15) #3
  call void @llvm.lifetime.end.p0(i64 8, ptr %14) #3
  call void @llvm.lifetime.end.p0(i64 8, ptr %13) #3
  call void @llvm.lifetime.end.p0(i64 8, ptr %12) #3
  call void @llvm.lifetime.end.p0(i64 8, ptr %11) #3
  ret i32 %99
}