; Function Attrs: nounwind uwtable
define range(i32 -1, 2) i32 @ASN1_verify(ptr noundef readonly captures(none) %0, ptr noundef readonly captures(none) %1, ptr noundef readonly captures(none) %2, ptr noundef %3, ptr noundef %4) local_unnamed_addr #0 {
  %6 = alloca ptr, align 8
  %7 = tail call ptr @EVP_MD_CTX_new() #3
  call void @llvm.lifetime.start.p0(i64 8, ptr nonnull %6) #3
  %8 = icmp eq ptr %7, null
  br i1 %8, label %9, label %10

9:                                                ; preds = %5
  tail call void @ERR_new() #3
  tail call void @ERR_set_debug(ptr noundef nonnull @.str, i32 noundef 36, ptr noundef nonnull @__func__.ASN1_verify) #3
  tail call void (i32, i32, ptr, ...) @ERR_set_error(i32 noundef 13, i32 noundef 524294, ptr noundef null) #3
  br label %47

10:                                               ; preds = %5
  %11 = load ptr, ptr %1, align 8, !tbaa !3
  %12 = tail call i32 @OBJ_obj2nid(ptr noundef %11) #3
  %13 = tail call ptr @OBJ_nid2sn(i32 noundef %12) #3
  %14 = tail call ptr @EVP_get_digestbyname(ptr noundef %13) #3
  %15 = icmp eq ptr %14, null
  br i1 %15, label %16, label %17

16:                                               ; preds = %10
  tail call void @ERR_new() #3
  tail call void @ERR_set_debug(ptr noundef nonnull @.str, i32 noundef 42, ptr noundef nonnull @__func__.ASN1_verify) #3
  tail call void (i32, i32, ptr, ...) @ERR_set_error(i32 noundef 13, i32 noundef 161, ptr noundef null) #3
  br label %47

17:                                               ; preds = %10
  %18 = getelementptr inbounds nuw i8, ptr %2, i64 4
  %19 = load i32, ptr %18, align 4, !tbaa !10
  %20 = icmp eq i32 %19, 3
  br i1 %20, label %21, label %26

21:                                               ; preds = %17
  %22 = getelementptr inbounds nuw i8, ptr %2, i64 16
  %23 = load i64, ptr %22, align 8, !tbaa !15
  %24 = and i64 %23, 7
  %.not = icmp eq i64 %24, 0
  br i1 %.not, label %26, label %25

25:                                               ; preds = %21
  tail call void @ERR_new() #3
  tail call void @ERR_set_debug(ptr noundef nonnull @.str, i32 noundef 47, ptr noundef nonnull @__func__.ASN1_verify) #3
  tail call void (i32, i32, ptr, ...) @ERR_set_error(i32 noundef 13, i32 noundef 220, ptr noundef null) #3
  br label %47

26:                                               ; preds = %21, %17
  %27 = tail call i32 %0(ptr noundef %3, ptr noundef null) #3
  %28 = icmp slt i32 %27, 1
  br i1 %28, label %29, label %30

29:                                               ; preds = %26
  tail call void @ERR_new() #3
  tail call void @ERR_set_debug(ptr noundef nonnull @.str, i32 noundef 53, ptr noundef nonnull @__func__.ASN1_verify) #3
  tail call void (i32, i32, ptr, ...) @ERR_set_error(i32 noundef 13, i32 noundef 786691, ptr noundef null) #3
  br label %47

30:                                               ; preds = %26
  %31 = zext nneg i32 %27 to i64
  %32 = tail call noalias ptr @CRYPTO_malloc(i64 noundef %31, ptr noundef nonnull @.str, i32 noundef 56) #3
  %33 = icmp eq ptr %32, null
  br i1 %33, label %47, label %34

34:                                               ; preds = %30
  store ptr %32, ptr %6, align 8, !tbaa !16
  %35 = call i32 %0(ptr noundef %3, ptr noundef nonnull %6) #3
  %36 = call i32 @EVP_DigestInit_ex(ptr noundef nonnull %7, ptr noundef nonnull %14, ptr noundef null) #3
  %.not31 = icmp eq i32 %36, 0
  br i1 %.not31, label %.critedge, label %37

37:                                               ; preds = %34
  %38 = call i32 @EVP_DigestUpdate(ptr noundef nonnull %7, ptr noundef nonnull %32, i64 noundef %31) #3
  %.not32 = icmp eq i32 %38, 0
  call void @CRYPTO_clear_free(ptr noundef nonnull %32, i64 noundef %31, ptr noundef nonnull @.str, i32 noundef 65) #3
  br i1 %.not32, label %39, label %40

.critedge:                                        ; preds = %34
  call void @CRYPTO_clear_free(ptr noundef nonnull %32, i64 noundef %31, ptr noundef nonnull @.str, i32 noundef 65) #3
  br label %39

39:                                               ; preds = %.critedge, %37
  call void @ERR_new() #3
  call void @ERR_set_debug(ptr noundef nonnull @.str, i32 noundef 68, ptr noundef nonnull @__func__.ASN1_verify) #3
  call void (i32, i32, ptr, ...) @ERR_set_error(i32 noundef 13, i32 noundef 524294, ptr noundef null) #3
  br label %47

40:                                               ; preds = %37
  %41 = getelementptr inbounds nuw i8, ptr %2, i64 8
  %42 = load ptr, ptr %41, align 8, !tbaa !17
  %43 = load i32, ptr %2, align 8, !tbaa !18
  %44 = call i32 @EVP_VerifyFinal(ptr noundef nonnull %7, ptr noundef %42, i32 noundef %43, ptr noundef %4) #3
  %45 = icmp slt i32 %44, 1
  br i1 %45, label %46, label %47

46:                                               ; preds = %40
  call void @ERR_new() #3
  call void @ERR_set_debug(ptr noundef nonnull @.str, i32 noundef 75, ptr noundef nonnull @__func__.ASN1_verify) #3
  call void (i32, i32, ptr, ...) @ERR_set_error(i32 noundef 13, i32 noundef 524294, ptr noundef null) #3
  br label %47

47:                                               ; preds = %40, %30, %46, %39, %29, %25, %16, %9
  %.0 = phi i32 [ -1, %9 ], [ -1, %16 ], [ -1, %25 ], [ -1, %29 ], [ -1, %30 ], [ 0, %46 ], [ 0, %39 ], [ 1, %40 ]
  call void @EVP_MD_CTX_free(ptr noundef %7) #3
  call void @llvm.lifetime.end.p0(i64 8, ptr nonnull %6) #3
  ret i32 %.0
}